target datalayout = "e-m:e-p270:32:32-p271:32:32-p272:64:64-i64:64-i128:128-f80:128-n8:16:32:64-S128"
target triple = "x86_64-pc-linux-gnu"

%struct.archive_write = type { %struct.archive, i32, i64, i64, ptr, i64, ptr, ptr, ptr, ptr, ptr, i32, i32, ptr, ptr, ptr, ptr, ptr, ptr, ptr, ptr, ptr, ptr, ptr, ptr, ptr, ptr }
%struct.archive = type { i32, i32, ptr, i32, ptr, i32, i32, ptr, %struct.archive_string, ptr, i32, i32, ptr, ptr, i64, i64, i64, i8, i64 }
%struct.archive_string = type { ptr, i64, i64 }
%struct.ar_w = type { i64, i64, i32, i32, i8, ptr }

@.str.7 = private unnamed_addr constant [9 x i8] c"!<arch>\0A\00", align 1

; Function Attrs: nounwind uwtable
define internal i32 @archive_write_ar_close(ptr noundef %0) #0 {
  %2 = alloca i32, align 4
  %3 = alloca ptr, align 8
  %4 = alloca ptr, align 8
  %5 = alloca i32, align 4
  %6 = alloca i32, align 4
  store ptr %0, ptr %3, align 8, !tbaa !9
  call void @llvm.lifetime.start.p0(i64 8, ptr %4) #9
  call void @llvm.lifetime.start.p0(i64 4, ptr %5) #9
  %7 = load ptr, ptr %3, align 8, !tbaa !9
  %8 = getelementptr inbounds nuw %struct.archive_write, ptr %7, i32 0, i32 15
  %9 = load ptr, ptr %8, align 8, !tbaa !26
  store ptr %9, ptr %4, align 8, !tbaa !24
  %10 = load ptr, ptr %4, align 8, !tbaa !24
  %11 = getelementptr inbounds nuw %struct.ar_w, ptr %10, i32 0, i32 4
  %12 = load i8, ptr %11, align 8, !tbaa !39
  %13 = icmp ne i8 %12, 0
  br i1 %13, label %20, label %14

14:                                               ; preds = %1
  %15 = load ptr, ptr %4, align 8, !tbaa !24
  %16 = getelementptr inbounds nuw %struct.ar_w, ptr %15, i32 0, i32 4
  store i8 1, ptr %16, align 8, !tbaa !39
  %17 = load ptr, ptr %3, align 8, !tbaa !9
  %18 = call i32 @__archive_write_output(ptr noundef %17, ptr noundef @.str.7, i64 noundef 8)
  store i32 %18, ptr %5, align 4, !tbaa !11
  %19 = load i32, ptr %5, align 4, !tbaa !11
  store i32 %19, ptr %2, align 4
  store i32 1, ptr %6, align 4
  br label %21

20:                                               ; preds = %1
  store i32 0, ptr %2, align 4
  store i32 1, ptr %6, align 4
  br label %21

21:                                               ; preds = %20, %14
  call void @llvm.lifetime.end.p0(i64 4, ptr %5) #9
  call void @llvm.lifetime.end.p0(i64 8, ptr %4) #9
  %22 = load i32, ptr %2, align 4
  ret i32 %22
}