; Function Attrs: nounwind uwtable
define internal i32 @archive_write_ar_close(ptr noundef %0) #0 {
  %2 = getelementptr inbounds nuw i8, ptr %0, i64 248
  %3 = load ptr, ptr %2, align 8, !tbaa !17
  %4 = getelementptr inbounds nuw i8, ptr %3, i64 24
  %5 = load i8, ptr %4, align 8, !tbaa !28
  %.not = icmp eq i8 %5, 0
  br i1 %.not, label %6, label %8

6:                                                ; preds = %1
  store i8 1, ptr %4, align 8, !tbaa !28
  %7 = tail call i32 @__archive_write_output(ptr noundef nonnull %0, ptr noundef nonnull @.str.7, i64 noundef 8) #12
  br label %8

8:                                                ; preds = %1, %6
  %.0 = phi i32 [ %7, %6 ], [ 0, %1 ]
  ret i32 %.0
}